; Function Attrs: mustprogress nofree norecurse nounwind sspstrong willreturn memory(readwrite, inaccessiblemem: none) uwtable
define noundef ptr @_ZN3tbb6detail2r117threading_control21get_threading_controlEb(i1 noundef zeroext %0) local_unnamed_addr #9 align 2 {
  %2 = load ptr, ptr @_ZN3tbb6detail2r117threading_control19g_threading_controlE, align 8, !tbaa !149
  %.not = icmp eq ptr %2, null
  br i1 %.not, label %_ZN3tbb6detail2r117threading_control7add_refEb.exit, label %3

3:                                                ; preds = %1
  %4 = getelementptr inbounds nuw i8, ptr %2, i64 12
  %5 = atomicrmw add ptr %4, i32 1 seq_cst, align 4
  br i1 %0, label %6, label %_ZN3tbb6detail2r117threading_control7add_refEb.exit

6:                                                ; preds = %3
  %7 = getelementptr inbounds nuw i8, ptr %2, i64 8
  %8 = atomicrmw add ptr %7, i32 1 seq_cst, align 4
  br label %_ZN3tbb6detail2r117threading_control7add_refEb.exit

_ZN3tbb6detail2r117threading_control7add_refEb.exit: ; preds = %6, %3, %1
  ret ptr %2
}